target datalayout = "e-m:e-p270:32:32-p271:32:32-p272:64:64-i64:64-i128:128-f80:128-n8:16:32:64-S128"
target triple = "x86_64-pc-linux-gnu"

%"class.duckdb::BufferedData" = type { ptr, i32, %"class.duckdb::weak_ptr", i64, %"class.std::mutex" }
%"class.duckdb::weak_ptr" = type { %"class.std::weak_ptr" }
%"class.std::weak_ptr" = type { %"class.std::__weak_ptr" }
%"class.std::__weak_ptr" = type { ptr, %"class.std::__weak_count" }
%"class.std::__weak_count" = type { ptr }
%"class.std::mutex" = type { %"class.std::__mutex_base" }
%"class.std::__mutex_base" = type { %union.pthread_mutex_t }
%union.pthread_mutex_t = type { %struct.__pthread_mutex_s }
%struct.__pthread_mutex_s = type { i32, i32, i32, i32, i32, i16, i16, %struct.__pthread_internal_list }
%struct.__pthread_internal_list = type { ptr, ptr }
%"class.std::deque.124" = type { %"class.std::_Deque_base.125" }
%"class.std::_Deque_base.125" = type { %"struct.std::_Deque_base<duckdb::unique_ptr<duckdb::DataChunk>, std::allocator<duckdb::unique_ptr<duckdb::DataChunk>>>::_Deque_impl" }
%"struct.std::_Deque_base<duckdb::unique_ptr<duckdb::DataChunk>, std::allocator<duckdb::unique_ptr<duckdb::DataChunk>>>::_Deque_impl" = type { %"struct.std::_Deque_base<duckdb::unique_ptr<duckdb::DataChunk>, std::allocator<duckdb::unique_ptr<duckdb::DataChunk>>>::_Deque_impl_data" }
%"struct.std::_Deque_base<duckdb::unique_ptr<duckdb::DataChunk>, std::allocator<duckdb::unique_ptr<duckdb::DataChunk>>>::_Deque_impl_data" = type { ptr, i64, %"struct.std::_Deque_iterator.129", %"struct.std::_Deque_iterator.129" }
%"struct.std::_Deque_iterator.129" = type { ptr, ptr, ptr, ptr }
%"struct.std::atomic.64" = type { %"struct.std::__atomic_base.65" }
%"struct.std::__atomic_base.65" = type { i64 }
%"class.std::lock_guard" = type { ptr }
%"class.duckdb::BatchedBufferedData" = type { %"class.duckdb::BufferedData", %"class.std::map", i64, %"struct.std::atomic.64", %"class.std::deque.124", i64, %"struct.std::atomic.64", %"class.std::map.170", i64, i64 }
%"class.std::map" = type { %"class.std::_Rb_tree" }
%"class.std::_Rb_tree" = type { %"struct.std::_Rb_tree<unsigned long, std::pair<const unsigned long, duckdb::InProgressBatch>, std::_Select1st<std::pair<const unsigned long, duckdb::InProgressBatch>>, std::less<unsigned long>>::_Rb_tree_impl" }
%"struct.std::_Rb_tree<unsigned long, std::pair<const unsigned long, duckdb::InProgressBatch>, std::_Select1st<std::pair<const unsigned long, duckdb::InProgressBatch>>, std::less<unsigned long>>::_Rb_tree_impl" = type { [8 x i8], %"struct.std::_Rb_tree_header" }
%"struct.std::_Rb_tree_header" = type { %"struct.std::_Rb_tree_node_base", i64 }
%"struct.std::_Rb_tree_node_base" = type { i32, ptr, ptr, ptr }
%"class.std::map.170" = type { %"class.std::_Rb_tree.171" }
%"class.std::_Rb_tree.171" = type { %"struct.std::_Rb_tree<unsigned long, std::pair<const unsigned long, duckdb::InterruptState>, std::_Select1st<std::pair<const unsigned long, duckdb::InterruptState>>, std::less<unsigned long>>::_Rb_tree_impl" }
%"struct.std::_Rb_tree<unsigned long, std::pair<const unsigned long, duckdb::InterruptState>, std::_Select1st<std::pair<const unsigned long, duckdb::InterruptState>>, std::less<unsigned long>>::_Rb_tree_impl" = type { [8 x i8], %"struct.std::_Rb_tree_header" }

; Function Attrs: inlinehint mustprogress nounwind uwtable
define internal noundef i32 @_ZL18__gthread_active_pv() #5 {
  ret i32 1
}

; Function Attrs: inlinehint mustprogress nounwind uwtable
define internal noundef i32 @_ZL22__gthread_mutex_unlockP15pthread_mutex_t(ptr noundef %0) #5 {
  %2 = alloca i32, align 4
  %3 = alloca ptr, align 8
  store ptr %0, ptr %3, align 8, !tbaa !341
  %4 = call noundef i32 @_ZL18__gthread_active_pv()
  %5 = icmp ne i32 %4, 0
  br i1 %5, label %6, label %9

6:                                                ; preds = %1
  %7 = load ptr, ptr %3, align 8, !tbaa !341
  %8 = call i32 @pthread_mutex_unlock(ptr noundef %7) #19
  store i32 %8, ptr %2, align 4
  br label %10

9:                                                ; preds = %1
  store i32 0, ptr %2, align 4
  br label %10

10:                                               ; preds = %9, %6
  %11 = load i32, ptr %2, align 4
  ret i32 %11
}

; Function Attrs: inlinehint mustprogress uwtable
define internal noundef i32 @_ZL20__gthread_mutex_lockP15pthread_mutex_t(ptr noundef %0) #8 {
  %2 = alloca i32, align 4
  %3 = alloca ptr, align 8
  store ptr %0, ptr %3, align 8, !tbaa !341
  %4 = call noundef i32 @_ZL18__gthread_active_pv()
  %5 = icmp ne i32 %4, 0
  br i1 %5, label %6, label %9

6:                                                ; preds = %1
  %7 = load ptr, ptr %3, align 8, !tbaa !341
  %8 = call i32 @pthread_mutex_lock(ptr noundef %7) #19
  store i32 %8, ptr %2, align 4
  br label %10

9:                                                ; preds = %1
  store i32 0, ptr %2, align 4
  br label %10

10:                                               ; preds = %9, %6
  %11 = load i32, ptr %2, align 4
  ret i32 %11
}

; Function Attrs: noinline noreturn nounwind uwtable
define linkonce_odr hidden void @__clang_call_terminate(ptr noundef %0) #11 comdat {
  %2 = call ptr @__cxa_begin_catch(ptr %0) #19
  call void @_ZSt9terminatev() #20
  unreachable
}

; Function Attrs: mustprogress uwtable
define linkonce_odr void @_ZNSt5mutex6unlockEv(ptr noundef nonnull align 8 dereferenceable(40) %0) #0 comdat align 2 {
  %2 = alloca ptr, align 8
  store ptr %0, ptr %2, align 8, !tbaa !48
  %3 = load ptr, ptr %2, align 8
  %4 = getelementptr inbounds nuw %"class.std::__mutex_base", ptr %3, i32 0, i32 0
  %5 = call noundef i32 @_ZL22__gthread_mutex_unlockP15pthread_mutex_t(ptr noundef %4)
  ret void
}

; Function Attrs: mustprogress nounwind uwtable
define linkonce_odr noundef zeroext i1 @_ZSteqRKSt15_Deque_iteratorIN6duckdb10unique_ptrINS0_9DataChunkESt14default_deleteIS2_ELb1EEERS5_PS5_ESA_(ptr noundef nonnull align 8 dereferenceable(32) %0, ptr noundef nonnull align 8 dereferenceable(32) %1) #1 comdat {
  %3 = alloca ptr, align 8
  %4 = alloca ptr, align 8
  store ptr %0, ptr %3, align 8, !tbaa !193
  store ptr %1, ptr %4, align 8, !tbaa !193
  %5 = load ptr, ptr %3, align 8, !tbaa !193
  %6 = getelementptr inbounds nuw %"struct.std::_Deque_iterator.129", ptr %5, i32 0, i32 0
  %7 = load ptr, ptr %6, align 8, !tbaa !195
  %8 = load ptr, ptr %4, align 8, !tbaa !193
  %9 = getelementptr inbounds nuw %"struct.std::_Deque_iterator.129", ptr %8, i32 0, i32 0
  %10 = load ptr, ptr %9, align 8, !tbaa !195
  %11 = icmp eq ptr %7, %10
  ret i1 %11
}

; Function Attrs: mustprogress uwtable
define linkonce_odr void @_ZNSt5mutex4lockEv(ptr noundef nonnull align 8 dereferenceable(40) %0) #0 comdat align 2 {
  %2 = alloca ptr, align 8
  %3 = alloca i32, align 4
  store ptr %0, ptr %2, align 8, !tbaa !48
  %4 = load ptr, ptr %2, align 8
  call void @llvm.lifetime.start.p0(i64 4, ptr %3) #19
  %5 = getelementptr inbounds nuw %"class.std::__mutex_base", ptr %4, i32 0, i32 0
  %6 = call noundef i32 @_ZL20__gthread_mutex_lockP15pthread_mutex_t(ptr noundef %5)
  store i32 %6, ptr %3, align 4, !tbaa !177
  %7 = load i32, ptr %3, align 4, !tbaa !177
  %8 = icmp ne i32 %7, 0
  br i1 %8, label %9, label %11

9:                                                ; preds = %1
  %10 = load i32, ptr %3, align 4, !tbaa !177
  call void @_ZSt20__throw_system_errori(i32 noundef %10) #22
  unreachable

11:                                               ; preds = %1
  call void @llvm.lifetime.end.p0(i64 4, ptr %3) #19
  ret void
}

; Function Attrs: mustprogress nounwind uwtable
define linkonce_odr void @_ZNSt10lock_guardISt5mutexED2Ev(ptr noundef nonnull align 8 dereferenceable(8) %0) unnamed_addr #1 comdat align 2 personality ptr @__gxx_personality_v0 {
  %2 = alloca ptr, align 8
  store ptr %0, ptr %2, align 8, !tbaa !91
  %3 = load ptr, ptr %2, align 8
  %4 = getelementptr inbounds nuw %"class.std::lock_guard", ptr %3, i32 0, i32 0
  %5 = load ptr, ptr %4, align 8, !tbaa !93
  invoke void @_ZNSt5mutex6unlockEv(ptr noundef nonnull align 8 dereferenceable(40) %5)
          to label %6 unwind label %7

6:                                                ; preds = %1
  ret void

7:                                                ; preds = %1
  %8 = landingpad { ptr, i32 }
          catch ptr null
  %9 = extractvalue { ptr, i32 } %8, 0
  call void @__clang_call_terminate(ptr %9) #20
  unreachable
}

; Function Attrs: mustprogress nounwind uwtable
define linkonce_odr noundef zeroext i1 @_ZNKSt5dequeIN6duckdb10unique_ptrINS0_9DataChunkESt14default_deleteIS2_ELb1EEESaIS5_EE5emptyEv(ptr noundef nonnull align 8 dereferenceable(80) %0) #1 comdat align 2 {
  %2 = alloca ptr, align 8
  store ptr %0, ptr %2, align 8, !tbaa !154
  %3 = load ptr, ptr %2, align 8
  %4 = getelementptr inbounds nuw %"class.std::_Deque_base.125", ptr %3, i32 0, i32 0
  %5 = getelementptr inbounds nuw %"struct.std::_Deque_base<duckdb::unique_ptr<duckdb::DataChunk>, std::allocator<duckdb::unique_ptr<duckdb::DataChunk>>>::_Deque_impl_data", ptr %4, i32 0, i32 3
  %6 = getelementptr inbounds nuw %"class.std::_Deque_base.125", ptr %3, i32 0, i32 0
  %7 = getelementptr inbounds nuw %"struct.std::_Deque_base<duckdb::unique_ptr<duckdb::DataChunk>, std::allocator<duckdb::unique_ptr<duckdb::DataChunk>>>::_Deque_impl_data", ptr %6, i32 0, i32 2
  %8 = call noundef zeroext i1 @_ZSteqRKSt15_Deque_iteratorIN6duckdb10unique_ptrINS0_9DataChunkESt14default_deleteIS2_ELb1EEERS5_PS5_ESA_(ptr noundef nonnull align 8 dereferenceable(32) %5, ptr noundef nonnull align 8 dereferenceable(32) %7) #19
  ret i1 %8
}

; Function Attrs: mustprogress uwtable
define linkonce_odr void @_ZNSt10lock_guardISt5mutexEC2ERS0_(ptr noundef nonnull align 8 dereferenceable(8) %0, ptr noundef nonnull align 8 dereferenceable(40) %1) unnamed_addr #0 comdat align 2 {
  %3 = alloca ptr, align 8
  %4 = alloca ptr, align 8
  store ptr %0, ptr %3, align 8, !tbaa !91
  store ptr %1, ptr %4, align 8, !tbaa !48
  %5 = load ptr, ptr %3, align 8
  %6 = getelementptr inbounds nuw %"class.std::lock_guard", ptr %5, i32 0, i32 0
  %7 = load ptr, ptr %4, align 8, !tbaa !48
  store ptr %7, ptr %6, align 8, !tbaa !48
  %8 = getelementptr inbounds nuw %"class.std::lock_guard", ptr %5, i32 0, i32 0
  %9 = load ptr, ptr %8, align 8, !tbaa !93
  call void @_ZNSt5mutex4lockEv(ptr noundef nonnull align 8 dereferenceable(40) %9)
  ret void
}

; Function Attrs: mustprogress uwtable
define noundef zeroext i1 @_ZN6duckdb19BatchedBufferedData13BufferIsEmptyEv(ptr noundef nonnull align 8 dereferenceable(304) %0) #0 align 2 {
  %2 = alloca ptr, align 8
  %3 = alloca %"class.std::lock_guard", align 8
  store ptr %0, ptr %2, align 8, !tbaa !127
  %4 = load ptr, ptr %2, align 8
  call void @llvm.lifetime.start.p0(i64 8, ptr %3) #19
  %5 = getelementptr inbounds nuw %"class.duckdb::BufferedData", ptr %4, i32 0, i32 4
  call void @_ZNSt10lock_guardISt5mutexEC2ERS0_(ptr noundef nonnull align 8 dereferenceable(8) %3, ptr noundef nonnull align 8 dereferenceable(40) %5)
  %6 = getelementptr inbounds nuw %"class.duckdb::BatchedBufferedData", ptr %4, i32 0, i32 4
  %7 = call noundef zeroext i1 @_ZNKSt5dequeIN6duckdb10unique_ptrINS0_9DataChunkESt14default_deleteIS2_ELb1EEESaIS5_EE5emptyEv(ptr noundef nonnull align 8 dereferenceable(80) %6) #19
  call void @_ZNSt10lock_guardISt5mutexED2Ev(ptr noundef nonnull align 8 dereferenceable(8) %3) #19
  call void @llvm.lifetime.end.p0(i64 8, ptr %3) #19
  ret i1 %7
}